; Function Attrs: mustprogress nofree norecurse nosync nounwind willreturn memory(readwrite, inaccessiblemem: none) uwtable
define internal noundef zeroext i1 @GL_LockTexture(ptr readnone captures(none) %0, ptr noundef readonly captures(none) %1, ptr noundef readonly captures(none) %2, ptr noundef writeonly captures(none) initializes((0, 8)) %3, ptr noundef writeonly captures(none) initializes((0, 4)) %4) #5 {
  %6 = getelementptr inbounds nuw i8, ptr %1, i64 280
  %7 = load ptr, ptr %6, align 8
  %8 = getelementptr inbounds nuw i8, ptr %7, i64 68
  tail call void @llvm.memcpy.p0.p0.i64(ptr noundef nonnull align 4 dereferenceable(16) %8, ptr noundef nonnull align 4 dereferenceable(16) %2, i64 16, i1 false)
  %9 = getelementptr inbounds nuw i8, ptr %7, i64 56
  %10 = load ptr, ptr %9, align 8
  %11 = getelementptr inbounds nuw i8, ptr %2, i64 4
  %12 = load i32, ptr %11, align 4
  %13 = getelementptr inbounds nuw i8, ptr %7, i64 64
  %14 = load i32, ptr %13, align 8
  %15 = load i32, ptr %2, align 4
  %16 = load i32, ptr %1, align 8
  %.not = icmp eq i32 %16, 0
  %.mask = and i32 %16, -268435456
  %.not17 = icmp eq i32 %.mask, 268435456
  %or.cond = or i1 %.not, %.not17
  br i1 %or.cond, label %21, label %17

17:                                               ; preds = %5
  switch i32 %16, label %18 [
    i32 844715353, label %23
    i32 1498831189, label %23
    i32 1431918169, label %23
  ]

18:                                               ; preds = %17
  %19 = icmp eq i32 %16, 808530000
  %20 = select i1 %19, i32 2, i32 1
  br label %23

21:                                               ; preds = %5
  %22 = and i32 %16, 255
  br label %23

23:                                               ; preds = %18, %17, %17, %17, %21
  %24 = phi i32 [ %22, %21 ], [ 2, %17 ], [ %20, %18 ], [ 2, %17 ], [ 2, %17 ]
  %25 = mul nsw i32 %14, %12
  %26 = sext i32 %25 to i64
  %27 = getelementptr inbounds i8, ptr %10, i64 %26
  %28 = mul i32 %24, %15
  %29 = zext i32 %28 to i64
  %30 = getelementptr inbounds nuw i8, ptr %27, i64 %29
  store ptr %30, ptr %3, align 8
  %31 = load i32, ptr %13, align 8
  store i32 %31, ptr %4, align 4
  ret i1 true
}